target datalayout = "e-m:e-p270:32:32-p271:32:32-p272:64:64-i64:64-i128:128-f80:128-n8:16:32:64-S128"
target triple = "x86_64-pc-linux-gnu"

%struct._connParams = type { ptr, ptr, ptr, ptr, i32, ptr }

@.str.115 = private unnamed_addr constant [86 x i8] c"SELECT datname FROM pg_database WHERE datallowconn AND datconnlimit <> -2 ORDER BY 1;\00", align 1

; Function Attrs: nounwind uwtable
define internal void @vacuum_all_databases(ptr noundef %0, ptr noundef %1, i1 noundef zeroext %2, ptr noundef %3, i32 noundef %4, ptr noundef %5, i1 noundef zeroext %6, i1 noundef zeroext %7) #0 {
  %9 = alloca ptr, align 8
  %10 = alloca ptr, align 8
  %11 = alloca i8, align 1
  %12 = alloca ptr, align 8
  %13 = alloca i32, align 4
  %14 = alloca ptr, align 8
  %15 = alloca i8, align 1
  %16 = alloca i8, align 1
  %17 = alloca ptr, align 8
  %18 = alloca ptr, align 8
  %19 = alloca i32, align 4
  %20 = alloca i32, align 4
  store ptr %0, ptr %9, align 8
  store ptr %1, ptr %10, align 8
  %21 = zext i1 %2 to i8
  store i8 %21, ptr %11, align 1
  store ptr %3, ptr %12, align 8
  store i32 %4, ptr %13, align 4
  store ptr %5, ptr %14, align 8
  %22 = zext i1 %6 to i8
  store i8 %22, ptr %15, align 1
  %23 = zext i1 %7 to i8
  store i8 %23, ptr %16, align 1
  call void @llvm.lifetime.start.p0(i64 8, ptr %17) #8
  call void @llvm.lifetime.start.p0(i64 8, ptr %18) #8
  call void @llvm.lifetime.start.p0(i64 4, ptr %19) #8
  call void @llvm.lifetime.start.p0(i64 4, ptr %20) #8
  %24 = load ptr, ptr %9, align 8
  %25 = load ptr, ptr %14, align 8
  %26 = load i8, ptr %15, align 1, !range !6, !noundef !7
  %27 = trunc i8 %26 to i1
  %28 = call ptr @connectMaintenanceDatabase(ptr noundef %24, ptr noundef %25, i1 noundef zeroext %27)
  store ptr %28, ptr %17, align 8
  %29 = load ptr, ptr %17, align 8
  %30 = load i8, ptr %15, align 1, !range !6, !noundef !7
  %31 = trunc i8 %30 to i1
  %32 = call ptr @executeQuery(ptr noundef %29, ptr noundef @.str.115, i1 noundef zeroext %31)
  store ptr %32, ptr %18, align 8
  %33 = load ptr, ptr %17, align 8
  call void @PQfinish(ptr noundef %33)
  %34 = load i8, ptr %11, align 1, !range !6, !noundef !7
  %35 = trunc i8 %34 to i1
  br i1 %35, label %36, label %70

36:                                               ; preds = %8
  store i32 0, ptr %19, align 4
  br label %37

37:                                               ; preds = %66, %36
  %38 = load i32, ptr %19, align 4
  %39 = icmp slt i32 %38, 3
  br i1 %39, label %40, label %69

40:                                               ; preds = %37
  store i32 0, ptr %20, align 4
  br label %41

41:                                               ; preds = %62, %40
  %42 = load i32, ptr %20, align 4
  %43 = load ptr, ptr %18, align 8
  %44 = call i32 @PQntuples(ptr noundef %43)
  %45 = icmp slt i32 %42, %44
  br i1 %45, label %46, label %65

46:                                               ; preds = %41
  %47 = load ptr, ptr %18, align 8
  %48 = load i32, ptr %20, align 4
  %49 = call ptr @PQgetvalue(ptr noundef %47, i32 noundef %48, i32 noundef 0)
  %50 = load ptr, ptr %9, align 8
  %51 = getelementptr inbounds nuw %struct._connParams, ptr %50, i32 0, i32 5
  store ptr %49, ptr %51, align 8
  %52 = load ptr, ptr %9, align 8
  %53 = load ptr, ptr %10, align 8
  %54 = load i32, ptr %19, align 4
  %55 = load ptr, ptr %12, align 8
  %56 = load i32, ptr %13, align 4
  %57 = load ptr, ptr %14, align 8
  %58 = load i8, ptr %15, align 1, !range !6, !noundef !7
  %59 = trunc i8 %58 to i1
  %60 = load i8, ptr %16, align 1, !range !6, !noundef !7
  %61 = trunc i8 %60 to i1
  call void @vacuum_one_database(ptr noundef %52, ptr noundef %53, i32 noundef %54, ptr noundef %55, i32 noundef %56, ptr noundef %57, i1 noundef zeroext %59, i1 noundef zeroext %61)
  br label %62

62:                                               ; preds = %46
  %63 = load i32, ptr %20, align 4
  %64 = add i32 %63, 1
  store i32 %64, ptr %20, align 4
  br label %41, !llvm.loop !9

65:                                               ; preds = %41
  br label %66

66:                                               ; preds = %65
  %67 = load i32, ptr %19, align 4
  %68 = add i32 %67, 1
  store i32 %68, ptr %19, align 4
  br label %37, !llvm.loop !10

69:                                               ; preds = %37
  br label %95

70:                                               ; preds = %8
  store i32 0, ptr %20, align 4
  br label %71

71:                                               ; preds = %91, %70
  %72 = load i32, ptr %20, align 4
  %73 = load ptr, ptr %18, align 8
  %74 = call i32 @PQntuples(ptr noundef %73)
  %75 = icmp slt i32 %72, %74
  br i1 %75, label %76, label %94

76:                                               ; preds = %71
  %77 = load ptr, ptr %18, align 8
  %78 = load i32, ptr %20, align 4
  %79 = call ptr @PQgetvalue(ptr noundef %77, i32 noundef %78, i32 noundef 0)
  %80 = load ptr, ptr %9, align 8
  %81 = getelementptr inbounds nuw %struct._connParams, ptr %80, i32 0, i32 5
  store ptr %79, ptr %81, align 8
  %82 = load ptr, ptr %9, align 8
  %83 = load ptr, ptr %10, align 8
  %84 = load ptr, ptr %12, align 8
  %85 = load i32, ptr %13, align 4
  %86 = load ptr, ptr %14, align 8
  %87 = load i8, ptr %15, align 1, !range !6, !noundef !7
  %88 = trunc i8 %87 to i1
  %89 = load i8, ptr %16, align 1, !range !6, !noundef !7
  %90 = trunc i8 %89 to i1
  call void @vacuum_one_database(ptr noundef %82, ptr noundef %83, i32 noundef -1, ptr noundef %84, i32 noundef %85, ptr noundef %86, i1 noundef zeroext %88, i1 noundef zeroext %90)
  br label %91

91:                                               ; preds = %76
  %92 = load i32, ptr %20, align 4
  %93 = add i32 %92, 1
  store i32 %93, ptr %20, align 4
  br label %71, !llvm.loop !11

94:                                               ; preds = %71
  br label %95

95:                                               ; preds = %94, %69
  %96 = load ptr, ptr %18, align 8
  call void @PQclear(ptr noundef %96)
  call void @llvm.lifetime.end.p0(i64 4, ptr %20) #8
  call void @llvm.lifetime.end.p0(i64 4, ptr %19) #8
  call void @llvm.lifetime.end.p0(i64 8, ptr %18) #8
  call void @llvm.lifetime.end.p0(i64 8, ptr %17) #8
  ret void
}