; Function Attrs: nounwind uwtable
define internal fastcc void @vacuum_all_databases(ptr noundef nonnull %0, ptr noundef nonnull captures(none) %1, i1 noundef zeroext %2, ptr noundef nonnull readonly captures(none) %3, i32 noundef %4, ptr noundef %5, i1 noundef zeroext %6, i1 noundef zeroext %7) unnamed_addr #4 {
  %9 = tail call ptr @connectMaintenanceDatabase(ptr noundef nonnull %0, ptr noundef %5, i1 noundef zeroext %6) #10
  %10 = tail call ptr @executeQuery(ptr noundef %9, ptr noundef nonnull @.str.115, i1 noundef zeroext %6) #10
  tail call void @PQfinish(ptr noundef %9) #10
  br i1 %2, label %.preheader37, label %.preheader38

.preheader38:                                     ; preds = %8
  %11 = tail call i32 @PQntuples(ptr noundef %10) #10
  %12 = icmp sgt i32 %11, 0
  br i1 %12, label %.lr.ph, label %.loopexit

.lr.ph:                                           ; preds = %.preheader38
  %13 = getelementptr inbounds nuw i8, ptr %0, i64 40
  br label %22

.preheader37:                                     ; preds = %8
  %14 = getelementptr inbounds nuw i8, ptr %0, i64 40
  br label %.preheader

.preheader:                                       ; preds = %.preheader37, %._crit_edge
  %.03643 = phi i32 [ 0, %.preheader37 ], [ %21, %._crit_edge ]
  %15 = tail call i32 @PQntuples(ptr noundef %10) #10
  %16 = icmp sgt i32 %15, 0
  br i1 %16, label %.lr.ph42, label %._crit_edge

.lr.ph42:                                         ; preds = %.preheader, %.lr.ph42
  %.041 = phi i32 [ %18, %.lr.ph42 ], [ 0, %.preheader ]
  %17 = tail call ptr @PQgetvalue(ptr noundef %10, i32 noundef %.041, i32 noundef 0) #10
  store ptr %17, ptr %14, align 8
  tail call fastcc void @vacuum_one_database(ptr noundef %0, ptr noundef %1, i32 noundef %.03643, ptr noundef %3, i32 noundef %4, ptr noundef %5, i1 noundef zeroext %6, i1 noundef zeroext %7)
  %18 = add nuw nsw i32 %.041, 1
  %19 = tail call i32 @PQntuples(ptr noundef %10) #10
  %20 = icmp slt i32 %18, %19
  br i1 %20, label %.lr.ph42, label %._crit_edge, !llvm.loop !9

._crit_edge:                                      ; preds = %.lr.ph42, %.preheader
  %21 = add nuw nsw i32 %.03643, 1
  %exitcond.not = icmp eq i32 %21, 3
  br i1 %exitcond.not, label %.loopexit, label %.preheader, !llvm.loop !10

22:                                               ; preds = %.lr.ph, %22
  %.140 = phi i32 [ 0, %.lr.ph ], [ %24, %22 ]
  %23 = tail call ptr @PQgetvalue(ptr noundef %10, i32 noundef %.140, i32 noundef 0) #10
  store ptr %23, ptr %13, align 8
  tail call fastcc void @vacuum_one_database(ptr noundef %0, ptr noundef %1, i32 noundef -1, ptr noundef %3, i32 noundef %4, ptr noundef %5, i1 noundef zeroext %6, i1 noundef zeroext %7)
  %24 = add nuw nsw i32 %.140, 1
  %25 = tail call i32 @PQntuples(ptr noundef %10) #10
  %26 = icmp slt i32 %24, %25
  br i1 %26, label %22, label %.loopexit, !llvm.loop !11

.loopexit:                                        ; preds = %22, %._crit_edge, %.preheader38
  tail call void @PQclear(ptr noundef %10) #10
  ret void
}